; ModuleID = 'bench/openssl/original/x_spki.ll'
source_filename = "bench/openssl/original/x_spki.ll"
target datalayout = "e-m:e-p270:32:32-p271:32:32-p272:64:64-i64:64-i128:128-f80:128-n8:16:32:64-S128"
target triple = "x86_64-pc-linux-gnu"

%struct.ASN1_TEMPLATE_st = type { i64, i64, i64, ptr, ptr }

@NETSCAPE_SPKAC_it.local_it = internal constant { i8, [7 x i8], i64, ptr, i64, ptr, i64, ptr } { i8 1, [7 x i8] zeroinitializer, i64 16, ptr @NETSCAPE_SPKAC_seq_tt, i64 2, ptr null, i64 16, ptr @.str }, align 8
@NETSCAPE_SPKAC_seq_tt = internal constant [2 x %struct.ASN1_TEMPLATE_st] [%struct.ASN1_TEMPLATE_st { i64 0, i64 0, i64 0, ptr @.str.2, ptr @X509_PUBKEY_it }, %struct.ASN1_TEMPLATE_st { i64 0, i64 0, i64 8, ptr @.str.3, ptr @ASN1_IA5STRING_it }], align 16
@.str = private unnamed_addr constant [15 x i8] c"NETSCAPE_SPKAC\00", align 1
@NETSCAPE_SPKI_it.local_it = internal constant { i8, [7 x i8], i64, ptr, i64, ptr, i64, ptr } { i8 1, [7 x i8] zeroinitializer, i64 16, ptr @NETSCAPE_SPKI_seq_tt, i64 3, ptr null, i64 32, ptr @.str.1 }, align 8
@NETSCAPE_SPKI_seq_tt = internal constant [3 x %struct.ASN1_TEMPLATE_st] [%struct.ASN1_TEMPLATE_st { i64 0, i64 0, i64 0, ptr @.str.4, ptr @NETSCAPE_SPKAC_it }, %struct.ASN1_TEMPLATE_st { i64 4096, i64 0, i64 8, ptr @.str.5, ptr @X509_ALGOR_it }, %struct.ASN1_TEMPLATE_st { i64 0, i64 0, i64 24, ptr @.str.6, ptr @ASN1_BIT_STRING_it }], align 16
@.str.1 = private unnamed_addr constant [14 x i8] c"NETSCAPE_SPKI\00", align 1
@.str.2 = private unnamed_addr constant [7 x i8] c"pubkey\00", align 1
@.str.3 = private unnamed_addr constant [10 x i8] c"challenge\00", align 1
@.str.4 = private unnamed_addr constant [6 x i8] c"spkac\00", align 1
@.str.5 = private unnamed_addr constant [10 x i8] c"sig_algor\00", align 1
@.str.6 = private unnamed_addr constant [10 x i8] c"signature\00", align 1

; Function Attrs: mustprogress nofree norecurse nosync nounwind willreturn memory(none) uwtable
define noundef nonnull ptr @NETSCAPE_SPKAC_it() #0 {
  ret ptr @NETSCAPE_SPKAC_it.local_it
}

; Function Attrs: nounwind uwtable
define ptr @d2i_NETSCAPE_SPKAC(ptr noundef %0, ptr noundef %1, i64 noundef %2) local_unnamed_addr #1 {
  %4 = tail call ptr @ASN1_item_d2i(ptr noundef %0, ptr noundef %1, i64 noundef %2, ptr noundef nonnull @NETSCAPE_SPKAC_it.local_it) #3
  ret ptr %4
}

declare ptr @ASN1_item_d2i(ptr noundef, ptr noundef, i64 noundef, ptr noundef) local_unnamed_addr #2

; Function Attrs: nounwind uwtable
define i32 @i2d_NETSCAPE_SPKAC(ptr noundef %0, ptr noundef %1) local_unnamed_addr #1 {
  %3 = tail call i32 @ASN1_item_i2d(ptr noundef %0, ptr noundef %1, ptr noundef nonnull @NETSCAPE_SPKAC_it.local_it) #3
  ret i32 %3
}

declare i32 @ASN1_item_i2d(ptr noundef, ptr noundef, ptr noundef) local_unnamed_addr #2

; Function Attrs: nounwind uwtable
define ptr @NETSCAPE_SPKAC_new() local_unnamed_addr #1 {
  %1 = tail call ptr @ASN1_item_new(ptr noundef nonnull @NETSCAPE_SPKAC_it.local_it) #3
  ret ptr %1
}

declare ptr @ASN1_item_new(ptr noundef) local_unnamed_addr #2

; Function Attrs: nounwind uwtable
define void @NETSCAPE_SPKAC_free(ptr noundef %0) local_unnamed_addr #1 {
  tail call void @ASN1_item_free(ptr noundef %0, ptr noundef nonnull @NETSCAPE_SPKAC_it.local_it) #3
  ret void
}

declare void @ASN1_item_free(ptr noundef, ptr noundef) local_unnamed_addr #2

; Function Attrs: mustprogress nofree norecurse nosync nounwind willreturn memory(none) uwtable
define noundef nonnull ptr @NETSCAPE_SPKI_it() local_unnamed_addr #0 {
  ret ptr @NETSCAPE_SPKI_it.local_it
}

; Function Attrs: nounwind uwtable
define ptr @d2i_NETSCAPE_SPKI(ptr noundef %0, ptr noundef %1, i64 noundef %2) local_unnamed_addr #1 {
  %4 = tail call ptr @ASN1_item_d2i(ptr noundef %0, ptr noundef %1, i64 noundef %2, ptr noundef nonnull @NETSCAPE_SPKI_it.local_it) #3
  ret ptr %4
}

; Function Attrs: nounwind uwtable
define i32 @i2d_NETSCAPE_SPKI(ptr noundef %0, ptr noundef %1) local_unnamed_addr #1 {
  %3 = tail call i32 @ASN1_item_i2d(ptr noundef %0, ptr noundef %1, ptr noundef nonnull @NETSCAPE_SPKI_it.local_it) #3
  ret i32 %3
}

; Function Attrs: nounwind uwtable
define ptr @NETSCAPE_SPKI_new() local_unnamed_addr #1 {
  %1 = tail call ptr @ASN1_item_new(ptr noundef nonnull @NETSCAPE_SPKI_it.local_it) #3
  ret ptr %1
}

; Function Attrs: nounwind uwtable
define void @NETSCAPE_SPKI_free(ptr noundef %0) local_unnamed_addr #1 {
  tail call void @ASN1_item_free(ptr noundef %0, ptr noundef nonnull @NETSCAPE_SPKI_it.local_it) #3
  ret void
}

declare ptr @X509_PUBKEY_it() #2

declare ptr @ASN1_IA5STRING_it() #2

declare ptr @X509_ALGOR_it() #2

declare ptr @ASN1_BIT_STRING_it() #2


!llvm.module.flags = !{!0, !1, !2}

!0 = !{i32 1, !"wchar_size", i32 4}
!1 = !{i32 8, !"PIC Level", i32 2}
!2 = !{i32 7, !"uwtable", i32 2}
